target datalayout = "e-m:e-p270:32:32-p271:32:32-p272:64:64-i64:64-i128:128-f80:128-n8:16:32:64-S128"
target triple = "x86_64-pc-linux-gnu"

%struct.Vec_Int_t_ = type { i32, i32, ptr }
%struct.Gia_Man_t_ = type { ptr, ptr, i32, i32, i32, i32, ptr, ptr, i32, i32, i32, ptr, ptr, %struct.Vec_Int_t_, %struct.Vec_Int_t_, i32, i32, i32, %struct.Vec_Int_t_, ptr, ptr, ptr, i32, i32, i32, i32, ptr, ptr, ptr, ptr, ptr, i32, i32, ptr, i32, ptr, ptr, ptr, ptr, ptr, ptr, ptr, ptr, ptr, ptr, ptr, ptr, ptr, ptr, ptr, ptr, ptr, ptr, %struct.Vec_Int_t_, %struct.Vec_Int_t_, ptr, ptr, ptr, ptr, ptr, ptr, ptr, ptr, ptr, ptr, ptr, ptr, ptr, ptr, ptr, ptr, ptr, ptr, ptr, ptr, ptr, i32, float, float, ptr, ptr, i32, ptr, ptr, ptr, ptr, ptr, ptr, ptr, ptr, ptr, ptr, ptr, ptr, ptr, ptr, ptr, i64, i64, ptr, ptr, i32, i32, i32, i32, i32, i32, i32, i32, i32, i32, i32, i32, ptr, ptr, ptr, ptr, ptr, ptr, ptr, ptr, i32, i32, i32, ptr, i32, i32, ptr, ptr, ptr, ptr, ptr, ptr, i32, i32, ptr, %struct.Vec_Int_t_, %struct.Vec_Int_t_, %struct.Vec_Int_t_, ptr, ptr, ptr, i32, i32, i32, i32, ptr, ptr, ptr, ptr, ptr }
%struct.Mini_Lut_t_ = type { i32, i32, i32, i32, ptr, ptr }

@.str.4 = private unnamed_addr constant [3 x i8] c"rb\00", align 1
@.str.37 = private unnamed_addr constant [36 x i8] c"Cannot open file for reading \22%s\22.\0A\00", align 1

; Function Attrs: nounwind uwtable
define internal i32 @Mini_LutWordNum(i32 noundef %0) #0 {
  %2 = alloca i32, align 4
  store i32 %0, ptr %2, align 4, !tbaa !12
  %3 = load i32, ptr %2, align 4, !tbaa !12
  %4 = icmp sgt i32 %3, 5
  br i1 %4, label %5, label %9

5:                                                ; preds = %1
  %6 = load i32, ptr %2, align 4, !tbaa !12
  %7 = sub nsw i32 %6, 5
  %8 = shl i32 1, %7
  br label %10

9:                                                ; preds = %1
  br label %10

10:                                               ; preds = %9, %5
  %11 = phi i32 [ %8, %5 ], [ 1, %9 ]
  ret i32 %11
}

; Function Attrs: nounwind uwtable
define internal void @Mini_LutStop(ptr noundef %0) #0 {
  %2 = alloca ptr, align 8
  store ptr %0, ptr %2, align 8, !tbaa !81
  %3 = load ptr, ptr %2, align 8, !tbaa !81
  %4 = getelementptr inbounds nuw %struct.Mini_Lut_t_, ptr %3, i32 0, i32 4
  %5 = load ptr, ptr %4, align 8, !tbaa !92
  %6 = icmp ne ptr %5, null
  br i1 %6, label %7, label %13

7:                                                ; preds = %1
  %8 = load ptr, ptr %2, align 8, !tbaa !81
  %9 = getelementptr inbounds nuw %struct.Mini_Lut_t_, ptr %8, i32 0, i32 4
  %10 = load ptr, ptr %9, align 8, !tbaa !92
  call void @free(ptr noundef %10) #13
  %11 = load ptr, ptr %2, align 8, !tbaa !81
  %12 = getelementptr inbounds nuw %struct.Mini_Lut_t_, ptr %11, i32 0, i32 4
  store ptr null, ptr %12, align 8, !tbaa !92
  br label %14

13:                                               ; preds = %1
  br label %14

14:                                               ; preds = %13, %7
  %15 = load ptr, ptr %2, align 8, !tbaa !81
  %16 = getelementptr inbounds nuw %struct.Mini_Lut_t_, ptr %15, i32 0, i32 5
  %17 = load ptr, ptr %16, align 8, !tbaa !93
  %18 = icmp ne ptr %17, null
  br i1 %18, label %19, label %25

19:                                               ; preds = %14
  %20 = load ptr, ptr %2, align 8, !tbaa !81
  %21 = getelementptr inbounds nuw %struct.Mini_Lut_t_, ptr %20, i32 0, i32 5
  %22 = load ptr, ptr %21, align 8, !tbaa !93
  call void @free(ptr noundef %22) #13
  %23 = load ptr, ptr %2, align 8, !tbaa !81
  %24 = getelementptr inbounds nuw %struct.Mini_Lut_t_, ptr %23, i32 0, i32 5
  store ptr null, ptr %24, align 8, !tbaa !93
  br label %26

25:                                               ; preds = %14
  br label %26

26:                                               ; preds = %25, %19
  %27 = load ptr, ptr %2, align 8, !tbaa !81
  %28 = icmp ne ptr %27, null
  br i1 %28, label %29, label %31

29:                                               ; preds = %26
  %30 = load ptr, ptr %2, align 8, !tbaa !81
  call void @free(ptr noundef %30) #13
  store ptr null, ptr %2, align 8, !tbaa !81
  br label %32

31:                                               ; preds = %26
  br label %32

32:                                               ; preds = %31, %29
  ret void
}

; Function Attrs: nounwind uwtable
define internal ptr @Mini_LutLoad(ptr noundef %0) #0 {
  %2 = alloca ptr, align 8
  %3 = alloca ptr, align 8
  %4 = alloca ptr, align 8
  %5 = alloca ptr, align 8
  %6 = alloca i32, align 4
  %7 = alloca i32, align 4
  %8 = alloca i32, align 4
  store ptr %0, ptr %3, align 8, !tbaa !42
  call void @llvm.lifetime.start.p0(i64 8, ptr %4) #13
  call void @llvm.lifetime.start.p0(i64 8, ptr %5) #13
  call void @llvm.lifetime.start.p0(i64 4, ptr %6) #13
  call void @llvm.lifetime.start.p0(i64 4, ptr %7) #13
  %9 = load ptr, ptr %3, align 8, !tbaa !42
  %10 = call noalias ptr @fopen(ptr noundef %9, ptr noundef @.str.4)
  store ptr %10, ptr %5, align 8, !tbaa !69
  %11 = load ptr, ptr %5, align 8, !tbaa !69
  %12 = icmp eq ptr %11, null
  br i1 %12, label %13, label %16

13:                                               ; preds = %1
  %14 = load ptr, ptr %3, align 8, !tbaa !42
  %15 = call i32 (ptr, ...) @printf(ptr noundef @.str.37, ptr noundef %14)
  store ptr null, ptr %2, align 8
  store i32 1, ptr %8, align 4
  br label %93

16:                                               ; preds = %1
  %17 = load ptr, ptr %5, align 8, !tbaa !69
  %18 = call i64 @fread(ptr noundef %7, i64 noundef 4, i64 noundef 1, ptr noundef %17)
  %19 = trunc i64 %18 to i32
  store i32 %19, ptr %6, align 4, !tbaa !12
  %20 = call noalias ptr @calloc(i64 noundef 1, i64 noundef 32) #16
  store ptr %20, ptr %4, align 8, !tbaa !81
  %21 = load i32, ptr %7, align 4, !tbaa !12
  %22 = load ptr, ptr %4, align 8, !tbaa !81
  %23 = getelementptr inbounds nuw %struct.Mini_Lut_t_, ptr %22, i32 0, i32 0
  store i32 %21, ptr %23, align 8, !tbaa !113
  %24 = load ptr, ptr %4, align 8, !tbaa !81
  %25 = getelementptr inbounds nuw %struct.Mini_Lut_t_, ptr %24, i32 0, i32 1
  store i32 %21, ptr %25, align 4, !tbaa !91
  %26 = load ptr, ptr %4, align 8, !tbaa !81
  %27 = getelementptr inbounds nuw %struct.Mini_Lut_t_, ptr %26, i32 0, i32 2
  %28 = load ptr, ptr %5, align 8, !tbaa !69
  %29 = call i64 @fread(ptr noundef %27, i64 noundef 4, i64 noundef 1, ptr noundef %28)
  %30 = trunc i64 %29 to i32
  store i32 %30, ptr %6, align 4, !tbaa !12
  %31 = load ptr, ptr %4, align 8, !tbaa !81
  %32 = getelementptr inbounds nuw %struct.Mini_Lut_t_, ptr %31, i32 0, i32 3
  %33 = load ptr, ptr %5, align 8, !tbaa !69
  %34 = call i64 @fread(ptr noundef %32, i64 noundef 4, i64 noundef 1, ptr noundef %33)
  %35 = trunc i64 %34 to i32
  store i32 %35, ptr %6, align 4, !tbaa !12
  %36 = load ptr, ptr %4, align 8, !tbaa !81
  %37 = getelementptr inbounds nuw %struct.Mini_Lut_t_, ptr %36, i32 0, i32 0
  %38 = load i32, ptr %37, align 8, !tbaa !113
  %39 = load ptr, ptr %4, align 8, !tbaa !81
  %40 = getelementptr inbounds nuw %struct.Mini_Lut_t_, ptr %39, i32 0, i32 3
  %41 = load i32, ptr %40, align 4, !tbaa !87
  %42 = mul nsw i32 %38, %41
  %43 = sext i32 %42 to i64
  %44 = mul i64 4, %43
  %45 = call noalias ptr @malloc(i64 noundef %44) #15
  %46 = load ptr, ptr %4, align 8, !tbaa !81
  %47 = getelementptr inbounds nuw %struct.Mini_Lut_t_, ptr %46, i32 0, i32 4
  store ptr %45, ptr %47, align 8, !tbaa !92
  %48 = load ptr, ptr %4, align 8, !tbaa !81
  %49 = getelementptr inbounds nuw %struct.Mini_Lut_t_, ptr %48, i32 0, i32 0
  %50 = load i32, ptr %49, align 8, !tbaa !113
  %51 = load ptr, ptr %4, align 8, !tbaa !81
  %52 = getelementptr inbounds nuw %struct.Mini_Lut_t_, ptr %51, i32 0, i32 3
  %53 = load i32, ptr %52, align 4, !tbaa !87
  %54 = call i32 @Mini_LutWordNum(i32 noundef %53)
  %55 = mul nsw i32 %50, %54
  %56 = sext i32 %55 to i64
  %57 = mul i64 4, %56
  %58 = call noalias ptr @malloc(i64 noundef %57) #15
  %59 = load ptr, ptr %4, align 8, !tbaa !81
  %60 = getelementptr inbounds nuw %struct.Mini_Lut_t_, ptr %59, i32 0, i32 5
  store ptr %58, ptr %60, align 8, !tbaa !93
  %61 = load ptr, ptr %4, align 8, !tbaa !81
  %62 = getelementptr inbounds nuw %struct.Mini_Lut_t_, ptr %61, i32 0, i32 4
  %63 = load ptr, ptr %62, align 8, !tbaa !92
  %64 = load ptr, ptr %4, align 8, !tbaa !81
  %65 = getelementptr inbounds nuw %struct.Mini_Lut_t_, ptr %64, i32 0, i32 0
  %66 = load i32, ptr %65, align 8, !tbaa !113
  %67 = load ptr, ptr %4, align 8, !tbaa !81
  %68 = getelementptr inbounds nuw %struct.Mini_Lut_t_, ptr %67, i32 0, i32 3
  %69 = load i32, ptr %68, align 4, !tbaa !87
  %70 = mul nsw i32 %66, %69
  %71 = sext i32 %70 to i64
  %72 = load ptr, ptr %5, align 8, !tbaa !69
  %73 = call i64 @fread(ptr noundef %63, i64 noundef 4, i64 noundef %71, ptr noundef %72)
  %74 = trunc i64 %73 to i32
  store i32 %74, ptr %6, align 4, !tbaa !12
  %75 = load ptr, ptr %4, align 8, !tbaa !81
  %76 = getelementptr inbounds nuw %struct.Mini_Lut_t_, ptr %75, i32 0, i32 5
  %77 = load ptr, ptr %76, align 8, !tbaa !93
  %78 = load ptr, ptr %4, align 8, !tbaa !81
  %79 = getelementptr inbounds nuw %struct.Mini_Lut_t_, ptr %78, i32 0, i32 0
  %80 = load i32, ptr %79, align 8, !tbaa !113
  %81 = load ptr, ptr %4, align 8, !tbaa !81
  %82 = getelementptr inbounds nuw %struct.Mini_Lut_t_, ptr %81, i32 0, i32 3
  %83 = load i32, ptr %82, align 4, !tbaa !87
  %84 = call i32 @Mini_LutWordNum(i32 noundef %83)
  %85 = mul nsw i32 %80, %84
  %86 = sext i32 %85 to i64
  %87 = load ptr, ptr %5, align 8, !tbaa !69
  %88 = call i64 @fread(ptr noundef %77, i64 noundef 4, i64 noundef %86, ptr noundef %87)
  %89 = trunc i64 %88 to i32
  store i32 %89, ptr %6, align 4, !tbaa !12
  %90 = load ptr, ptr %5, align 8, !tbaa !69
  %91 = call i32 @fclose(ptr noundef %90)
  %92 = load ptr, ptr %4, align 8, !tbaa !81
  store ptr %92, ptr %2, align 8
  store i32 1, ptr %8, align 4
  br label %93

93:                                               ; preds = %16, %13
  call void @llvm.lifetime.end.p0(i64 4, ptr %7) #13
  call void @llvm.lifetime.end.p0(i64 4, ptr %6) #13
  call void @llvm.lifetime.end.p0(i64 8, ptr %5) #13
  call void @llvm.lifetime.end.p0(i64 8, ptr %4) #13
  %94 = load ptr, ptr %2, align 8
  ret ptr %94
}

; Function Attrs: nounwind uwtable
define ptr @Gia_ManReadMiniLut(ptr noundef %0) #0 {
  %2 = alloca ptr, align 8
  %3 = alloca ptr, align 8
  %4 = alloca ptr, align 8
  store ptr %0, ptr %2, align 8, !tbaa !42
  call void @llvm.lifetime.start.p0(i64 8, ptr %3) #13
  %5 = load ptr, ptr %2, align 8, !tbaa !42
  %6 = call ptr @Mini_LutLoad(ptr noundef %5)
  store ptr %6, ptr %3, align 8, !tbaa !81
  call void @llvm.lifetime.start.p0(i64 8, ptr %4) #13
  %7 = load ptr, ptr %3, align 8, !tbaa !81
  %8 = call ptr @Gia_ManFromMiniLut(ptr noundef %7, ptr noundef null)
  store ptr %8, ptr %4, align 8, !tbaa !3
  %9 = load ptr, ptr %4, align 8, !tbaa !3
  %10 = getelementptr inbounds nuw %struct.Gia_Man_t_, ptr %9, i32 0, i32 0
  %11 = load ptr, ptr %10, align 8, !tbaa !21
  %12 = icmp ne ptr %11, null
  br i1 %12, label %13, label %19

13:                                               ; preds = %1
  %14 = load ptr, ptr %4, align 8, !tbaa !3
  %15 = getelementptr inbounds nuw %struct.Gia_Man_t_, ptr %14, i32 0, i32 0
  %16 = load ptr, ptr %15, align 8, !tbaa !21
  call void @free(ptr noundef %16) #13
  %17 = load ptr, ptr %4, align 8, !tbaa !3
  %18 = getelementptr inbounds nuw %struct.Gia_Man_t_, ptr %17, i32 0, i32 0
  store ptr null, ptr %18, align 8, !tbaa !21
  br label %20

19:                                               ; preds = %1
  br label %20

20:                                               ; preds = %19, %13
  %21 = load ptr, ptr %2, align 8, !tbaa !42
  %22 = call ptr @Extra_FileNameGeneric(ptr noundef %21)
  %23 = load ptr, ptr %4, align 8, !tbaa !3
  %24 = getelementptr inbounds nuw %struct.Gia_Man_t_, ptr %23, i32 0, i32 0
  store ptr %22, ptr %24, align 8, !tbaa !21
  %25 = load ptr, ptr %3, align 8, !tbaa !81
  call void @Mini_LutStop(ptr noundef %25)
  %26 = load ptr, ptr %4, align 8, !tbaa !3
  call void @llvm.lifetime.end.p0(i64 8, ptr %4) #13
  call void @llvm.lifetime.end.p0(i64 8, ptr %3) #13
  ret ptr %26
}