; Function Attrs: nounwind uwtable
define noundef ptr @Gia_ManReadMiniLut(ptr noundef %0) local_unnamed_addr #2 {
  %2 = alloca i32, align 4
  call void @llvm.lifetime.start.p0(i64 4, ptr nonnull %2) #25
  %3 = tail call noalias ptr @fopen(ptr noundef %0, ptr noundef nonnull @.str.4)
  %4 = icmp eq ptr %3, null
  br i1 %4, label %5, label %7

5:                                                ; preds = %1
  %6 = tail call i32 (ptr, ...) @printf(ptr noundef nonnull dereferenceable(1) @.str.37, ptr noundef %0)
  br label %Mini_LutLoad.exit

7:                                                ; preds = %1
  %8 = call i64 @fread(ptr noundef nonnull %2, i64 noundef 4, i64 noundef 1, ptr noundef nonnull %3)
  %9 = tail call noalias dereferenceable_or_null(32) ptr @calloc(i64 noundef 1, i64 noundef 32) #28
  %10 = load i32, ptr %2, align 4, !tbaa !10
  store i32 %10, ptr %9, align 8, !tbaa !88
  %11 = getelementptr inbounds nuw i8, ptr %9, i64 4
  store i32 %10, ptr %11, align 4, !tbaa !73
  %12 = getelementptr inbounds nuw i8, ptr %9, i64 8
  %13 = tail call i64 @fread(ptr noundef nonnull %12, i64 noundef 4, i64 noundef 1, ptr noundef nonnull %3)
  %14 = getelementptr inbounds nuw i8, ptr %9, i64 12
  %15 = tail call i64 @fread(ptr noundef nonnull %14, i64 noundef 4, i64 noundef 1, ptr noundef nonnull %3)
  %16 = load i32, ptr %9, align 8, !tbaa !88
  %17 = load i32, ptr %14, align 4, !tbaa !71
  %18 = mul nsw i32 %17, %16
  %19 = sext i32 %18 to i64
  %20 = shl nsw i64 %19, 2
  %21 = tail call noalias ptr @malloc(i64 noundef %20) #26
  %22 = getelementptr inbounds nuw i8, ptr %9, i64 16
  store ptr %21, ptr %22, align 8, !tbaa !74
  %23 = tail call i32 @llvm.smax.i32(i32 %17, i32 5)
  %24 = add nsw i32 %23, -5
  %25 = shl i32 %16, %24
  %26 = sext i32 %25 to i64
  %27 = shl nsw i64 %26, 2
  %28 = tail call noalias ptr @malloc(i64 noundef %27) #26
  %29 = getelementptr inbounds nuw i8, ptr %9, i64 24
  store ptr %28, ptr %29, align 8, !tbaa !75
  %30 = tail call i64 @fread(ptr noundef %21, i64 noundef 4, i64 noundef %19, ptr noundef nonnull %3)
  %31 = tail call i64 @fread(ptr noundef %28, i64 noundef 4, i64 noundef %26, ptr noundef nonnull %3)
  %32 = tail call i32 @fclose(ptr noundef nonnull %3)
  br label %Mini_LutLoad.exit

Mini_LutLoad.exit:                                ; preds = %5, %7
  %.0.i = phi ptr [ null, %5 ], [ %9, %7 ]
  call void @llvm.lifetime.end.p0(i64 4, ptr nonnull %2) #25
  %33 = tail call ptr @Gia_ManFromMiniLut(ptr noundef %.0.i, ptr noundef null)
  %34 = load ptr, ptr %33, align 8, !tbaa !14
  %.not = icmp eq ptr %34, null
  br i1 %.not, label %36, label %35

35:                                               ; preds = %Mini_LutLoad.exit
  tail call void @free(ptr noundef nonnull %34) #25
  store ptr null, ptr %33, align 8, !tbaa !14
  br label %36

36:                                               ; preds = %Mini_LutLoad.exit, %35
  %37 = tail call ptr @Extra_FileNameGeneric(ptr noundef %0) #25
  store ptr %37, ptr %33, align 8, !tbaa !14
  %38 = getelementptr inbounds nuw i8, ptr %.0.i, i64 16
  %39 = load ptr, ptr %38, align 8, !tbaa !74
  %.not.i = icmp eq ptr %39, null
  br i1 %.not.i, label %41, label %40

40:                                               ; preds = %36
  tail call void @free(ptr noundef nonnull %39) #25
  store ptr null, ptr %38, align 8, !tbaa !74
  br label %41

41:                                               ; preds = %40, %36
  %42 = getelementptr inbounds nuw i8, ptr %.0.i, i64 24
  %43 = load ptr, ptr %42, align 8, !tbaa !75
  %.not10.i = icmp eq ptr %43, null
  br i1 %.not10.i, label %Mini_LutStop.exit, label %44

44:                                               ; preds = %41
  tail call void @free(ptr noundef nonnull %43) #25
  br label %Mini_LutStop.exit

Mini_LutStop.exit:                                ; preds = %41, %44
  tail call void @free(ptr noundef nonnull %.0.i) #25
  ret ptr %33
}